; Function Attrs: mustprogress uwtable
define void @_ZN6icu_7712StringSearch7setTextERNS_17CharacterIteratorER10UErrorCode(ptr noundef nonnull align 8 dereferenceable(160) %0, ptr noundef nonnull align 8 dereferenceable(24) %1, ptr noundef nonnull align 4 dereferenceable(4) %2) unnamed_addr #1 align 2 {
  %4 = load i32, ptr %2, align 4, !tbaa !6
  %5 = icmp sgt i32 %4, 0
  br i1 %5, label %29, label %6

6:                                                ; preds = %3
  %7 = getelementptr inbounds nuw i8, ptr %0, i64 24
  %8 = load ptr, ptr %1, align 8, !tbaa !3
  %9 = getelementptr inbounds nuw i8, ptr %8, i64 208
  %10 = load ptr, ptr %9, align 8
  tail call void %10(ptr noundef nonnull align 8 dereferenceable(24) %1, ptr noundef nonnull align 8 dereferenceable(64) %7)
  %11 = getelementptr inbounds nuw i8, ptr %0, i64 152
  %12 = load ptr, ptr %11, align 8, !tbaa !9
  %13 = getelementptr inbounds nuw i8, ptr %0, i64 32
  %14 = load i16, ptr %13, align 8, !tbaa !19
  %15 = and i16 %14, 17
  %.not.i = icmp eq i16 %15, 0
  br i1 %.not.i, label %16, label %_ZNK6icu_7713UnicodeString9getBufferEv.exit

16:                                               ; preds = %6
  %17 = and i16 %14, 2
  %.not2.i = icmp eq i16 %17, 0
  br i1 %.not2.i, label %20, label %18

18:                                               ; preds = %16
  %19 = getelementptr inbounds nuw i8, ptr %0, i64 34
  br label %_ZNK6icu_7713UnicodeString9getBufferEv.exit

20:                                               ; preds = %16
  %21 = getelementptr inbounds nuw i8, ptr %0, i64 48
  %22 = load ptr, ptr %21, align 8, !tbaa !19
  br label %_ZNK6icu_7713UnicodeString9getBufferEv.exit

_ZNK6icu_7713UnicodeString9getBufferEv.exit:      ; preds = %6, %18, %20
  %.0.i = phi ptr [ %19, %18 ], [ %22, %20 ], [ null, %6 ]
  %23 = icmp slt i16 %14, 0
  %24 = ashr i16 %14, 5
  %25 = sext i16 %24 to i32
  %26 = getelementptr inbounds nuw i8, ptr %0, i64 36
  %27 = load i32, ptr %26, align 4
  %28 = select i1 %23, i32 %27, i32 %25
  tail call void @usearch_setText_77(ptr noundef %12, ptr noundef %.0.i, i32 noundef %28, ptr noundef nonnull %2)
  br label %29

29:                                               ; preds = %_ZNK6icu_7713UnicodeString9getBufferEv.exit, %3
  ret void
}